; Function Attrs: nounwind sspstrong uwtable
define internal fastcc i64 @dbl2big(double noundef %0) unnamed_addr #0 {
  %2 = alloca [6 x i64], align 16
  %3 = alloca i64, align 8
  %4 = fcmp olt double %0, 0.000000e+00
  %5 = tail call double @llvm.fabs.f64(double %0) #34
  %6 = fcmp oeq double %5, 0x7FF0000000000000
  br i1 %6, label %7, label %10

7:                                                ; preds = %1
  %8 = load i64, ptr @rb_eFloatDomainError, align 8, !tbaa !7
  %9 = select i1 %4, ptr @.str.38, ptr @.str.39
  tail call void (i64, ptr, ...) @rb_raise(i64 noundef %8, ptr noundef nonnull %9) #29
  unreachable

10:                                               ; preds = %1
  %11 = fcmp uno double %0, 0.000000e+00
  br i1 %11, label %15, label %.preheader

.preheader:                                       ; preds = %10
  %12 = fneg double %0
  %13 = select i1 %4, double %12, double %0
  %14 = fcmp ult double %13, 1.000000e+00
  br i1 %14, label %._crit_edge, label %.lr.ph

15:                                               ; preds = %10
  %16 = load i64, ptr @rb_eFloatDomainError, align 8, !tbaa !7
  tail call void (i64, ptr, ...) @rb_raise(i64 noundef %16, ptr noundef nonnull @.str.40) #29
  unreachable

.lr.ph:                                           ; preds = %.preheader, %.lr.ph
  %.024 = phi double [ %17, %.lr.ph ], [ %13, %.preheader ]
  %.02023 = phi i64 [ %18, %.lr.ph ], [ 0, %.preheader ]
  %17 = fmul double %.024, 0x3DF0000000000000
  %18 = add i64 %.02023, 1
  %19 = fcmp ult double %17, 1.000000e+00
  br i1 %19, label %._crit_edge, label %.lr.ph, !llvm.loop !194

._crit_edge:                                      ; preds = %.lr.ph, %.preheader
  %.020.lcssa = phi i64 [ 0, %.preheader ], [ %18, %.lr.ph ]
  %.0.lcssa = phi double [ %13, %.preheader ], [ %17, %.lr.ph ]
  %20 = load i64, ptr @rb_cInteger, align 8, !tbaa !7
  %21 = fcmp ult double %0, 0.000000e+00
  %22 = tail call align 8 ptr @llvm.threadlocal.address.p0(ptr align 8 @ruby_current_ec)
  %23 = load ptr, ptr %22, align 8, !tbaa !14
  %24 = tail call i64 @rb_wb_protected_newobj_of(ptr noundef %23, i64 noundef %20, i64 noundef 10, i64 noundef 40) #27
  %25 = inttoptr i64 %24 to ptr
  %26 = load i64, ptr %25, align 8, !tbaa !11
  %27 = and i64 %26, -8193
  %masksel.i.i = select i1 %21, i64 0, i64 8192
  %.sink.i.i = or disjoint i64 %27, %masksel.i.i
  store i64 %.sink.i.i, ptr %25, align 8, !tbaa !11
  %28 = icmp ult i64 %.020.lcssa, 7
  br i1 %28, label %29, label %42

29:                                               ; preds = %._crit_edge
  %30 = and i64 %.sink.i.i, -245761
  %31 = shl nuw nsw i64 %.020.lcssa, 15
  %32 = or disjoint i64 %30, %31
  %33 = or disjoint i64 %32, 16384
  store i64 %33, ptr %25, align 8, !tbaa !11
  call void @llvm.lifetime.start.p0(i64 48, ptr nonnull %2) #27
  call void @llvm.lifetime.start.p0(i64 8, ptr nonnull %3)
  store volatile i64 1296236545, ptr %2, align 16, !tbaa !7
  %34 = getelementptr inbounds nuw i8, ptr %25, i64 16
  %35 = ptrtoint ptr %34 to i64
  %36 = getelementptr inbounds nuw i8, ptr %2, i64 8
  store volatile i64 %35, ptr %36, align 8, !tbaa !7
  %37 = getelementptr inbounds nuw i8, ptr %2, i64 16
  store volatile i64 24, ptr %37, align 16, !tbaa !7
  %38 = getelementptr inbounds nuw i8, ptr %2, i64 24
  store volatile i64 0, ptr %38, align 8, !tbaa !7
  %39 = getelementptr inbounds nuw i8, ptr %2, i64 32
  store volatile i64 0, ptr %39, align 16, !tbaa !7
  %40 = getelementptr inbounds nuw i8, ptr %2, i64 40
  store volatile i64 0, ptr %40, align 8, !tbaa !7
  %41 = call i64 asm sideeffect "rolq $$3,  %rdi ; rolq $$13, %rdi\0A\09rolq $$61, %rdi ; rolq $$51, %rdi\0A\09xchgq %rbx,%rbx", "={dx},{ax},0,~{cc},~{memory},~{dirflag},~{fpsr},~{flags}"(ptr nonnull %2, i64 0) #27, !srcloc !17
  store volatile i64 %41, ptr %3, align 8, !tbaa !7
  %.0..0..0..0..0..0..i = load volatile i64, ptr %3, align 8, !tbaa !7
  call void @llvm.lifetime.end.p0(i64 8, ptr nonnull %3)
  call void @llvm.lifetime.end.p0(i64 48, ptr nonnull %2) #27
  br label %bignew_1.exit

42:                                               ; preds = %._crit_edge
  %43 = tail call noalias nonnull ptr @ruby_xmalloc2(i64 noundef %.020.lcssa, i64 noundef 4) #28
  %44 = getelementptr inbounds nuw i8, ptr %25, i64 16
  %45 = getelementptr inbounds nuw i8, ptr %25, i64 24
  store ptr %43, ptr %45, align 8, !tbaa !13
  store i64 %.020.lcssa, ptr %44, align 8, !tbaa !13
  br label %bignew_1.exit

bignew_1.exit:                                    ; preds = %29, %42
  call void @rb_obj_freeze_inline(i64 noundef %24) #27
  %46 = load i64, ptr %25, align 8, !tbaa !11
  %47 = and i64 %46, 16384
  %.not.i22 = icmp eq i64 %47, 0
  br i1 %.not.i22, label %50, label %48

48:                                               ; preds = %bignew_1.exit
  %49 = getelementptr inbounds nuw i8, ptr %25, i64 16
  br label %BIGNUM_DIGITS.exit

50:                                               ; preds = %bignew_1.exit
  %51 = getelementptr inbounds nuw i8, ptr %25, i64 24
  %52 = load ptr, ptr %51, align 8, !tbaa !13
  br label %BIGNUM_DIGITS.exit

BIGNUM_DIGITS.exit:                               ; preds = %48, %50
  %.0.i = phi ptr [ %49, %48 ], [ %52, %50 ]
  %.not26 = icmp eq i64 %.020.lcssa, 0
  br i1 %.not26, label %._crit_edge30, label %.lr.ph29

.lr.ph29:                                         ; preds = %BIGNUM_DIGITS.exit, %.lr.ph29
  %.128 = phi double [ %57, %.lr.ph29 ], [ %.0.lcssa, %BIGNUM_DIGITS.exit ]
  %.12127 = phi i64 [ %53, %.lr.ph29 ], [ %.020.lcssa, %BIGNUM_DIGITS.exit ]
  %53 = add i64 %.12127, -1
  %54 = fmul double %.128, 0x41F0000000000000
  %55 = fptoui double %54 to i32
  %56 = uitofp i32 %55 to double
  %57 = fsub double %54, %56
  %58 = getelementptr i32, ptr %.0.i, i64 %53
  store i32 %55, ptr %58, align 4, !tbaa !18
  %.not = icmp eq i64 %53, 0
  br i1 %.not, label %._crit_edge30, label %.lr.ph29, !llvm.loop !195

._crit_edge30:                                    ; preds = %.lr.ph29, %BIGNUM_DIGITS.exit
  ret i64 %24
}